target datalayout = "e-m:e-p270:32:32-p271:32:32-p272:64:64-i64:64-i128:128-f80:128-n8:16:32:64-S128"
target triple = "x86_64-pc-linux-gnu"

%struct.anon = type { i8 }
%struct.anon.19 = type { i8 }
%struct.hb_extents_t = type { float, float, float, float }
%struct.hb_glyph_extents_t = type { i32, i32, i32, i32 }
%struct.hb_paint_extents_context_t = type { %struct.hb_vector_t, %struct.hb_vector_t.0, %struct.hb_vector_t.0 }
%struct.hb_vector_t = type { i32, i32, ptr }
%struct.hb_vector_t.0 = type { i32, i32, ptr }
%struct.hb_bounds_t = type { i32, %struct.hb_extents_t }

@_hb_CrapPool = external global [80 x i64], align 16
@_hb_NullPool = external constant [80 x i64], align 16
@_ZL6hb_max = internal constant %struct.anon zeroinitializer, align 1
@_ZL6hb_min = internal constant %struct.anon.19 zeroinitializer, align 1

; Function Attrs: mustprogress uwtable
define internal noundef nonnull align 4 dereferenceable(20) ptr @_ZL4CrapI11hb_bounds_tERT_v() #0 {
  %1 = alloca ptr, align 8
  store ptr @_hb_CrapPool, ptr %1, align 8
  %2 = load ptr, ptr %1, align 8
  %3 = call noundef nonnull align 4 dereferenceable(20) ptr @_ZN10NullHelperI11hb_bounds_tE8get_nullEv()
  call void @llvm.memcpy.p0.p0.i64(ptr align 4 %2, ptr align 4 %3, i64 20, i1 false)
  %4 = load ptr, ptr %1, align 8
  ret ptr %4
}

; Function Attrs: mustprogress nounwind uwtable
define linkonce_odr hidden noundef nonnull align 4 dereferenceable(20) ptr @_ZN4NullI11hb_bounds_tE8get_nullEv() #1 comdat align 2 {
  ret ptr @_hb_NullPool
}

; Function Attrs: mustprogress nounwind uwtable
define internal noundef nonnull align 4 dereferenceable(4) ptr @"_ZNK3$_0clIRfRKfEEDTqugefp_fp0_fp_fp0_EOT_OT0_"(ptr noundef nonnull align 1 dereferenceable(1) %0, ptr noundef nonnull align 4 dereferenceable(4) %1, ptr noundef nonnull align 4 dereferenceable(4) %2) #1 align 2 {
  %4 = alloca ptr, align 8
  %5 = alloca ptr, align 8
  %6 = alloca ptr, align 8
  store ptr %0, ptr %4, align 8
  store ptr %1, ptr %5, align 8
  store ptr %2, ptr %6, align 8
  %7 = load ptr, ptr %5, align 8
  %8 = load float, ptr %7, align 4
  %9 = load ptr, ptr %6, align 8
  %10 = load float, ptr %9, align 4
  %11 = fcmp oge float %8, %10
  br i1 %11, label %12, label %14

12:                                               ; preds = %3
  %13 = load ptr, ptr %5, align 8
  br label %16

14:                                               ; preds = %3
  %15 = load ptr, ptr %6, align 8
  br label %16

16:                                               ; preds = %14, %12
  %17 = phi ptr [ %13, %12 ], [ %15, %14 ]
  ret ptr %17
}

; Function Attrs: mustprogress nounwind uwtable
define internal noundef nonnull align 4 dereferenceable(4) ptr @"_ZNK3$_1clIRfRKfEEDTqulefp_fp0_fp_fp0_EOT_OT0_"(ptr noundef nonnull align 1 dereferenceable(1) %0, ptr noundef nonnull align 4 dereferenceable(4) %1, ptr noundef nonnull align 4 dereferenceable(4) %2) #1 align 2 {
  %4 = alloca ptr, align 8
  %5 = alloca ptr, align 8
  %6 = alloca ptr, align 8
  store ptr %0, ptr %4, align 8
  store ptr %1, ptr %5, align 8
  store ptr %2, ptr %6, align 8
  %7 = load ptr, ptr %5, align 8
  %8 = load float, ptr %7, align 4
  %9 = load ptr, ptr %6, align 8
  %10 = load float, ptr %9, align 4
  %11 = fcmp ole float %8, %10
  br i1 %11, label %12, label %14

12:                                               ; preds = %3
  %13 = load ptr, ptr %5, align 8
  br label %16

14:                                               ; preds = %3
  %15 = load ptr, ptr %6, align 8
  br label %16

16:                                               ; preds = %14, %12
  %17 = phi ptr [ %13, %12 ], [ %15, %14 ]
  ret ptr %17
}

; Function Attrs: mustprogress uwtable
define linkonce_odr hidden noundef nonnull align 4 dereferenceable(20) ptr @_ZN10CrapHelperI11hb_bounds_tE8get_crapEv() #0 comdat align 2 {
  %1 = call noundef nonnull align 4 dereferenceable(20) ptr @_ZL4CrapI11hb_bounds_tERT_v()
  ret ptr %1
}

; Function Attrs: mustprogress uwtable
define linkonce_odr hidden noundef nonnull align 4 dereferenceable(20) ptr @_ZN10NullHelperI11hb_bounds_tE8get_nullEv() #0 comdat align 2 {
  %1 = call noundef nonnull align 4 dereferenceable(20) ptr @_ZN4NullI11hb_bounds_tE8get_nullEv()
  ret ptr %1
}

; Function Attrs: mustprogress nounwind uwtable
define linkonce_odr hidden void @_ZN12hb_extents_t6union_ERKS_(ptr noundef nonnull align 4 dereferenceable(16) %0, ptr noundef nonnull align 4 dereferenceable(16) %1) #1 comdat align 2 {
  %3 = alloca ptr, align 8
  %4 = alloca ptr, align 8
  store ptr %0, ptr %3, align 8
  store ptr %1, ptr %4, align 8
  %5 = load ptr, ptr %3, align 8
  %6 = getelementptr inbounds %struct.hb_extents_t, ptr %5, i32 0, i32 0
  %7 = load ptr, ptr %4, align 8
  %8 = getelementptr inbounds %struct.hb_extents_t, ptr %7, i32 0, i32 0
  %9 = call noundef nonnull align 4 dereferenceable(4) ptr @"_ZNK3$_1clIRfRKfEEDTqulefp_fp0_fp_fp0_EOT_OT0_"(ptr noundef nonnull align 1 dereferenceable(1) @_ZL6hb_min, ptr noundef nonnull align 4 dereferenceable(4) %6, ptr noundef nonnull align 4 dereferenceable(4) %8)
  %10 = load float, ptr %9, align 4
  %11 = getelementptr inbounds %struct.hb_extents_t, ptr %5, i32 0, i32 0
  store float %10, ptr %11, align 4
  %12 = getelementptr inbounds %struct.hb_extents_t, ptr %5, i32 0, i32 1
  %13 = load ptr, ptr %4, align 8
  %14 = getelementptr inbounds %struct.hb_extents_t, ptr %13, i32 0, i32 1
  %15 = call noundef nonnull align 4 dereferenceable(4) ptr @"_ZNK3$_1clIRfRKfEEDTqulefp_fp0_fp_fp0_EOT_OT0_"(ptr noundef nonnull align 1 dereferenceable(1) @_ZL6hb_min, ptr noundef nonnull align 4 dereferenceable(4) %12, ptr noundef nonnull align 4 dereferenceable(4) %14)
  %16 = load float, ptr %15, align 4
  %17 = getelementptr inbounds %struct.hb_extents_t, ptr %5, i32 0, i32 1
  store float %16, ptr %17, align 4
  %18 = getelementptr inbounds %struct.hb_extents_t, ptr %5, i32 0, i32 2
  %19 = load ptr, ptr %4, align 8
  %20 = getelementptr inbounds %struct.hb_extents_t, ptr %19, i32 0, i32 2
  %21 = call noundef nonnull align 4 dereferenceable(4) ptr @"_ZNK3$_0clIRfRKfEEDTqugefp_fp0_fp_fp0_EOT_OT0_"(ptr noundef nonnull align 1 dereferenceable(1) @_ZL6hb_max, ptr noundef nonnull align 4 dereferenceable(4) %18, ptr noundef nonnull align 4 dereferenceable(4) %20)
  %22 = load float, ptr %21, align 4
  %23 = getelementptr inbounds %struct.hb_extents_t, ptr %5, i32 0, i32 2
  store float %22, ptr %23, align 4
  %24 = getelementptr inbounds %struct.hb_extents_t, ptr %5, i32 0, i32 3
  %25 = load ptr, ptr %4, align 8
  %26 = getelementptr inbounds %struct.hb_extents_t, ptr %25, i32 0, i32 3
  %27 = call noundef nonnull align 4 dereferenceable(4) ptr @"_ZNK3$_0clIRfRKfEEDTqugefp_fp0_fp_fp0_EOT_OT0_"(ptr noundef nonnull align 1 dereferenceable(1) @_ZL6hb_max, ptr noundef nonnull align 4 dereferenceable(4) %24, ptr noundef nonnull align 4 dereferenceable(4) %26)
  %28 = load float, ptr %27, align 4
  %29 = getelementptr inbounds %struct.hb_extents_t, ptr %5, i32 0, i32 3
  store float %28, ptr %29, align 4
  ret void
}

; Function Attrs: mustprogress uwtable
define linkonce_odr hidden noundef nonnull align 4 dereferenceable(20) ptr @_ZN11hb_vector_tI11hb_bounds_tLb0EEixEi(ptr noundef nonnull align 8 dereferenceable(16) %0, i32 noundef %1) #0 comdat align 2 {
  %3 = alloca ptr, align 8
  %4 = alloca ptr, align 8
  %5 = alloca i32, align 4
  %6 = alloca i32, align 4
  store ptr %0, ptr %4, align 8
  store i32 %1, ptr %5, align 4
  %7 = load ptr, ptr %4, align 8
  %8 = load i32, ptr %5, align 4
  store i32 %8, ptr %6, align 4
  %9 = load i32, ptr %6, align 4
  %10 = getelementptr inbounds %struct.hb_vector_t.0, ptr %7, i32 0, i32 1
  %11 = load i32, ptr %10, align 4
  %12 = icmp uge i32 %9, %11
  br i1 %12, label %13, label %15

13:                                               ; preds = %2
  %14 = call noundef nonnull align 4 dereferenceable(20) ptr @_ZN10CrapHelperI11hb_bounds_tE8get_crapEv()
  store ptr %14, ptr %3, align 8
  br label %21

15:                                               ; preds = %2
  %16 = getelementptr inbounds %struct.hb_vector_t.0, ptr %7, i32 0, i32 2
  %17 = load ptr, ptr %16, align 8
  %18 = load i32, ptr %6, align 4
  %19 = zext i32 %18 to i64
  %20 = getelementptr inbounds %struct.hb_bounds_t, ptr %17, i64 %19
  store ptr %20, ptr %3, align 8
  br label %21

21:                                               ; preds = %15, %13
  %22 = load ptr, ptr %3, align 8
  ret ptr %22
}

; Function Attrs: mustprogress uwtable
define linkonce_odr hidden void @_ZN11hb_vector_tI11hb_bounds_tLb0EE3popEv(ptr dead_on_unwind noalias writable sret(%struct.hb_bounds_t) align 4 %0, ptr noundef nonnull align 8 dereferenceable(16) %1) #0 comdat align 2 {
  %3 = alloca ptr, align 8
  store ptr %1, ptr %3, align 8
  %4 = load ptr, ptr %3, align 8
  %5 = getelementptr inbounds %struct.hb_vector_t.0, ptr %4, i32 0, i32 1
  %6 = load i32, ptr %5, align 4
  %7 = icmp ne i32 %6, 0
  br i1 %7, label %10, label %8

8:                                                ; preds = %2
  %9 = call noundef nonnull align 4 dereferenceable(20) ptr @_ZN10NullHelperI11hb_bounds_tE8get_nullEv()
  call void @llvm.memcpy.p0.p0.i64(ptr align 4 %0, ptr align 4 %9, i64 20, i1 false)
  br label %21

10:                                               ; preds = %2
  %11 = getelementptr inbounds %struct.hb_vector_t.0, ptr %4, i32 0, i32 2
  %12 = load ptr, ptr %11, align 8
  %13 = getelementptr inbounds %struct.hb_vector_t.0, ptr %4, i32 0, i32 1
  %14 = load i32, ptr %13, align 4
  %15 = sub i32 %14, 1
  %16 = zext i32 %15 to i64
  %17 = getelementptr inbounds %struct.hb_bounds_t, ptr %12, i64 %16
  call void @llvm.memcpy.p0.p0.i64(ptr align 4 %0, ptr align 4 %17, i64 20, i1 false)
  %18 = getelementptr inbounds %struct.hb_vector_t.0, ptr %4, i32 0, i32 1
  %19 = load i32, ptr %18, align 4
  %20 = add i32 %19, -1
  store i32 %20, ptr %18, align 4
  br label %21

21:                                               ; preds = %10, %8
  ret void
}

; Function Attrs: mustprogress uwtable
define linkonce_odr hidden void @_ZN11hb_bounds_t6union_ERKS_(ptr noundef nonnull align 4 dereferenceable(20) %0, ptr noundef nonnull align 4 dereferenceable(20) %1) #0 comdat align 2 {
  %3 = alloca ptr, align 8
  %4 = alloca ptr, align 8
  store ptr %0, ptr %3, align 8
  store ptr %1, ptr %4, align 8
  %5 = load ptr, ptr %3, align 8
  %6 = load ptr, ptr %4, align 8
  %7 = getelementptr inbounds %struct.hb_bounds_t, ptr %6, i32 0, i32 0
  %8 = load i32, ptr %7, align 4
  %9 = icmp eq i32 %8, 0
  br i1 %9, label %10, label %12

10:                                               ; preds = %2
  %11 = getelementptr inbounds %struct.hb_bounds_t, ptr %5, i32 0, i32 0
  store i32 0, ptr %11, align 4
  br label %34

12:                                               ; preds = %2
  %13 = load ptr, ptr %4, align 8
  %14 = getelementptr inbounds %struct.hb_bounds_t, ptr %13, i32 0, i32 0
  %15 = load i32, ptr %14, align 4
  %16 = icmp eq i32 %15, 1
  br i1 %16, label %17, label %33

17:                                               ; preds = %12
  %18 = getelementptr inbounds %struct.hb_bounds_t, ptr %5, i32 0, i32 0
  %19 = load i32, ptr %18, align 4
  %20 = icmp eq i32 %19, 2
  br i1 %20, label %21, label %23

21:                                               ; preds = %17
  %22 = load ptr, ptr %4, align 8
  call void @llvm.memcpy.p0.p0.i64(ptr align 4 %5, ptr align 4 %22, i64 20, i1 false)
  br label %32

23:                                               ; preds = %17
  %24 = getelementptr inbounds %struct.hb_bounds_t, ptr %5, i32 0, i32 0
  %25 = load i32, ptr %24, align 4
  %26 = icmp eq i32 %25, 1
  br i1 %26, label %27, label %31

27:                                               ; preds = %23
  %28 = getelementptr inbounds %struct.hb_bounds_t, ptr %5, i32 0, i32 1
  %29 = load ptr, ptr %4, align 8
  %30 = getelementptr inbounds %struct.hb_bounds_t, ptr %29, i32 0, i32 1
  call void @_ZN12hb_extents_t6union_ERKS_(ptr noundef nonnull align 4 dereferenceable(16) %28, ptr noundef nonnull align 4 dereferenceable(16) %30)
  br label %31

31:                                               ; preds = %27, %23
  br label %32

32:                                               ; preds = %31, %21
  br label %33

33:                                               ; preds = %32, %12
  br label %34

34:                                               ; preds = %33, %10
  ret void
}

; Function Attrs: mustprogress uwtable
define linkonce_odr hidden noundef nonnull align 4 dereferenceable(20) ptr @_ZN11hb_vector_tI11hb_bounds_tLb0EE4tailEv(ptr noundef nonnull align 8 dereferenceable(16) %0) #0 comdat align 2 {
  %2 = alloca ptr, align 8
  store ptr %0, ptr %2, align 8
  %3 = load ptr, ptr %2, align 8
  %4 = getelementptr inbounds %struct.hb_vector_t.0, ptr %3, i32 0, i32 1
  %5 = load i32, ptr %4, align 4
  %6 = sub i32 %5, 1
  %7 = call noundef nonnull align 4 dereferenceable(20) ptr @_ZN11hb_vector_tI11hb_bounds_tLb0EEixEi(ptr noundef nonnull align 8 dereferenceable(16) %3, i32 noundef %6)
  ret ptr %7
}

; Function Attrs: mustprogress uwtable
define linkonce_odr hidden void @_ZN26hb_paint_extents_context_t8pop_clipEv(ptr noundef nonnull align 8 dereferenceable(48) %0) #0 comdat align 2 {
  %2 = alloca ptr, align 8
  %3 = alloca %struct.hb_bounds_t, align 4
  store ptr %0, ptr %2, align 8
  %4 = load ptr, ptr %2, align 8
  %5 = getelementptr inbounds %struct.hb_paint_extents_context_t, ptr %4, i32 0, i32 1
  call void @_ZN11hb_vector_tI11hb_bounds_tLb0EE3popEv(ptr dead_on_unwind writable sret(%struct.hb_bounds_t) align 4 %3, ptr noundef nonnull align 8 dereferenceable(16) %5)
  ret void
}

; Function Attrs: mustprogress uwtable
define linkonce_odr hidden void @_ZN26hb_paint_extents_context_t5paintEv(ptr noundef nonnull align 8 dereferenceable(48) %0) #0 comdat align 2 {
  %2 = alloca ptr, align 8
  %3 = alloca ptr, align 8
  %4 = alloca ptr, align 8
  store ptr %0, ptr %2, align 8
  %5 = load ptr, ptr %2, align 8
  %6 = getelementptr inbounds %struct.hb_paint_extents_context_t, ptr %5, i32 0, i32 1
  %7 = call noundef nonnull align 4 dereferenceable(20) ptr @_ZN11hb_vector_tI11hb_bounds_tLb0EE4tailEv(ptr noundef nonnull align 8 dereferenceable(16) %6)
  store ptr %7, ptr %3, align 8
  %8 = getelementptr inbounds %struct.hb_paint_extents_context_t, ptr %5, i32 0, i32 2
  %9 = call noundef nonnull align 4 dereferenceable(20) ptr @_ZN11hb_vector_tI11hb_bounds_tLb0EE4tailEv(ptr noundef nonnull align 8 dereferenceable(16) %8)
  store ptr %9, ptr %4, align 8
  %10 = load ptr, ptr %4, align 8
  %11 = load ptr, ptr %3, align 8
  call void @_ZN11hb_bounds_t6union_ERKS_(ptr noundef nonnull align 4 dereferenceable(20) %10, ptr noundef nonnull align 4 dereferenceable(20) %11)
  ret void
}

; Function Attrs: mustprogress nounwind uwtable
define linkonce_odr hidden void @_ZN12hb_extents_tC2Effff(ptr noundef nonnull align 4 dereferenceable(16) %0, float noundef %1, float noundef %2, float noundef %3, float noundef %4) unnamed_addr #1 comdat align 2 {
  %6 = alloca ptr, align 8
  %7 = alloca float, align 4
  %8 = alloca float, align 4
  %9 = alloca float, align 4
  %10 = alloca float, align 4
  store ptr %0, ptr %6, align 8
  store float %1, ptr %7, align 4
  store float %2, ptr %8, align 4
  store float %3, ptr %9, align 4
  store float %4, ptr %10, align 4
  %11 = load ptr, ptr %6, align 8
  %12 = getelementptr inbounds %struct.hb_extents_t, ptr %11, i32 0, i32 0
  %13 = load float, ptr %7, align 4
  store float %13, ptr %12, align 4
  %14 = getelementptr inbounds %struct.hb_extents_t, ptr %11, i32 0, i32 1
  %15 = load float, ptr %8, align 4
  store float %15, ptr %14, align 4
  %16 = getelementptr inbounds %struct.hb_extents_t, ptr %11, i32 0, i32 2
  %17 = load float, ptr %9, align 4
  store float %17, ptr %16, align 4
  %18 = getelementptr inbounds %struct.hb_extents_t, ptr %11, i32 0, i32 3
  %19 = load float, ptr %10, align 4
  store float %19, ptr %18, align 4
  ret void
}

; Function Attrs: mustprogress uwtable
define internal noundef i32 @_ZL28hb_paint_extents_paint_imageP16hb_paint_funcs_tPvP9hb_blob_tjjjfP18hb_glyph_extents_tS1_(ptr noundef %0, ptr noundef %1, ptr noundef %2, i32 noundef %3, i32 noundef %4, i32 noundef %5, float noundef %6, ptr noundef %7, ptr noundef %8) #3 {
  %10 = alloca ptr, align 8
  %11 = alloca ptr, align 8
  %12 = alloca ptr, align 8
  %13 = alloca i32, align 4
  %14 = alloca i32, align 4
  %15 = alloca i32, align 4
  %16 = alloca float, align 4
  %17 = alloca ptr, align 8
  %18 = alloca ptr, align 8
  %19 = alloca ptr, align 8
  %20 = alloca %struct.hb_extents_t, align 4
  %21 = alloca %struct.hb_extents_t, align 4
  store ptr %0, ptr %10, align 8
  store ptr %1, ptr %11, align 8
  store ptr %2, ptr %12, align 8
  store i32 %3, ptr %13, align 4
  store i32 %4, ptr %14, align 4
  store i32 %5, ptr %15, align 4
  store float %6, ptr %16, align 4
  store ptr %7, ptr %17, align 8
  store ptr %8, ptr %18, align 8
  %22 = load ptr, ptr %11, align 8
  store ptr %22, ptr %19, align 8
  %23 = load ptr, ptr %17, align 8
  %24 = getelementptr inbounds %struct.hb_glyph_extents_t, ptr %23, i32 0, i32 0
  %25 = load i32, ptr %24, align 4
  %26 = sitofp i32 %25 to float
  %27 = load ptr, ptr %17, align 8
  %28 = getelementptr inbounds %struct.hb_glyph_extents_t, ptr %27, i32 0, i32 1
  %29 = load i32, ptr %28, align 4
  %30 = sitofp i32 %29 to float
  %31 = load ptr, ptr %17, align 8
  %32 = getelementptr inbounds %struct.hb_glyph_extents_t, ptr %31, i32 0, i32 3
  %33 = load i32, ptr %32, align 4
  %34 = sitofp i32 %33 to float
  %35 = fadd float %30, %34
  %36 = load ptr, ptr %17, align 8
  %37 = getelementptr inbounds %struct.hb_glyph_extents_t, ptr %36, i32 0, i32 0
  %38 = load i32, ptr %37, align 4
  %39 = sitofp i32 %38 to float
  %40 = load ptr, ptr %17, align 8
  %41 = getelementptr inbounds %struct.hb_glyph_extents_t, ptr %40, i32 0, i32 2
  %42 = load i32, ptr %41, align 4
  %43 = sitofp i32 %42 to float
  %44 = fadd float %39, %43
  %45 = load ptr, ptr %17, align 8
  %46 = getelementptr inbounds %struct.hb_glyph_extents_t, ptr %45, i32 0, i32 1
  %47 = load i32, ptr %46, align 4
  %48 = sitofp i32 %47 to float
  call void @_ZN12hb_extents_tC2Effff(ptr noundef nonnull align 4 dereferenceable(16) %20, float noundef %26, float noundef %35, float noundef %44, float noundef %48)
  %49 = load ptr, ptr %19, align 8
  call void @llvm.memcpy.p0.p0.i64(ptr align 4 %21, ptr align 4 %20, i64 16, i1 false)
  %50 = getelementptr inbounds { <2 x float>, <2 x float> }, ptr %21, i32 0, i32 0
  %51 = load <2 x float>, ptr %50, align 4
  %52 = getelementptr inbounds { <2 x float>, <2 x float> }, ptr %21, i32 0, i32 1
  %53 = load <2 x float>, ptr %52, align 4
  call void @_ZN26hb_paint_extents_context_t9push_clipE12hb_extents_t(ptr noundef nonnull align 8 dereferenceable(48) %49, <2 x float> %51, <2 x float> %53)
  %54 = load ptr, ptr %19, align 8
  call void @_ZN26hb_paint_extents_context_t5paintEv(ptr noundef nonnull align 8 dereferenceable(48) %54)
  %55 = load ptr, ptr %19, align 8
  call void @_ZN26hb_paint_extents_context_t8pop_clipEv(ptr noundef nonnull align 8 dereferenceable(48) %55)
  ret i32 1
}