; Function Attrs: mustprogress uwtable
define internal noundef i32 @_ZL28hb_paint_extents_paint_imageP16hb_paint_funcs_tPvP9hb_blob_tjjjfP18hb_glyph_extents_tS1_(ptr nocapture readnone %0, ptr noundef nonnull %1, ptr nocapture readnone %2, i32 %3, i32 %4, i32 %5, float %6, ptr nocapture noundef readonly %7, ptr nocapture readnone %8) #3 {
  %10 = load i32, ptr %7, align 4
  %11 = sitofp i32 %10 to float
  %12 = getelementptr inbounds i8, ptr %7, i64 4
  %13 = load i32, ptr %12, align 4
  %14 = sitofp i32 %13 to float
  %15 = getelementptr inbounds i8, ptr %7, i64 12
  %16 = load i32, ptr %15, align 4
  %17 = sitofp i32 %16 to float
  %18 = fadd float %14, %17
  %19 = getelementptr inbounds i8, ptr %7, i64 8
  %20 = load i32, ptr %19, align 4
  %21 = sitofp i32 %20 to float
  %22 = fadd float %11, %21
  %.sroa.0.0.vec.insert = insertelement <2 x float> poison, float %11, i64 0
  %.sroa.0.4.vec.insert = insertelement <2 x float> %.sroa.0.0.vec.insert, float %18, i64 1
  %.sroa.3.8.vec.insert = insertelement <2 x float> poison, float %22, i64 0
  %.sroa.3.12.vec.insert = insertelement <2 x float> %.sroa.3.8.vec.insert, float %14, i64 1
  tail call void @_ZN26hb_paint_extents_context_t9push_clipE12hb_extents_t(ptr noundef nonnull align 8 dereferenceable(48) %1, <2 x float> %.sroa.0.4.vec.insert, <2 x float> %.sroa.3.12.vec.insert)
  %23 = getelementptr inbounds i8, ptr %1, i64 20
  %24 = load i32, ptr %23, align 4
  %.not.i.not.i.i = icmp eq i32 %24, 0
  br i1 %.not.i.not.i.i, label %25, label %26

25:                                               ; preds = %9
  tail call void @llvm.memcpy.p0.p0.i64(ptr noundef nonnull align 16 dereferenceable(20) @_hb_CrapPool, ptr noundef nonnull align 16 dereferenceable(20) @_hb_NullPool, i64 20, i1 false)
  br label %_ZN11hb_vector_tI11hb_bounds_tLb0EE4tailEv.exit.i

26:                                               ; preds = %9
  %27 = add i32 %24, -1
  %28 = getelementptr inbounds i8, ptr %1, i64 24
  %29 = load ptr, ptr %28, align 8
  %30 = zext i32 %27 to i64
  %31 = getelementptr inbounds %struct.hb_bounds_t, ptr %29, i64 %30
  br label %_ZN11hb_vector_tI11hb_bounds_tLb0EE4tailEv.exit.i

_ZN11hb_vector_tI11hb_bounds_tLb0EE4tailEv.exit.i: ; preds = %26, %25
  %.0.i.i.i = phi ptr [ @_hb_CrapPool, %25 ], [ %31, %26 ]
  %32 = getelementptr inbounds i8, ptr %1, i64 36
  %33 = load i32, ptr %32, align 4
  %.not.i.not.i3.i = icmp eq i32 %33, 0
  br i1 %.not.i.not.i3.i, label %34, label %35

34:                                               ; preds = %_ZN11hb_vector_tI11hb_bounds_tLb0EE4tailEv.exit.i
  tail call void @llvm.memcpy.p0.p0.i64(ptr noundef nonnull align 16 dereferenceable(20) @_hb_CrapPool, ptr noundef nonnull align 16 dereferenceable(20) @_hb_NullPool, i64 20, i1 false)
  br label %_ZN11hb_vector_tI11hb_bounds_tLb0EE4tailEv.exit5.i

35:                                               ; preds = %_ZN11hb_vector_tI11hb_bounds_tLb0EE4tailEv.exit.i
  %36 = add i32 %33, -1
  %37 = getelementptr inbounds i8, ptr %1, i64 40
  %38 = load ptr, ptr %37, align 8
  %39 = zext i32 %36 to i64
  %40 = getelementptr inbounds %struct.hb_bounds_t, ptr %38, i64 %39
  br label %_ZN11hb_vector_tI11hb_bounds_tLb0EE4tailEv.exit5.i

_ZN11hb_vector_tI11hb_bounds_tLb0EE4tailEv.exit5.i: ; preds = %35, %34
  %.0.i.i4.i = phi ptr [ @_hb_CrapPool, %34 ], [ %40, %35 ]
  %41 = load i32, ptr %.0.i.i.i, align 4
  switch i32 %41, label %_ZN26hb_paint_extents_context_t5paintEv.exit [
    i32 0, label %42
    i32 1, label %43
  ]

42:                                               ; preds = %_ZN11hb_vector_tI11hb_bounds_tLb0EE4tailEv.exit5.i
  store i32 0, ptr %.0.i.i4.i, align 4
  br label %_ZN26hb_paint_extents_context_t5paintEv.exit

43:                                               ; preds = %_ZN11hb_vector_tI11hb_bounds_tLb0EE4tailEv.exit5.i
  %44 = load i32, ptr %.0.i.i4.i, align 4
  switch i32 %44, label %_ZN26hb_paint_extents_context_t5paintEv.exit [
    i32 2, label %45
    i32 1, label %46
  ]

45:                                               ; preds = %43
  tail call void @llvm.memcpy.p0.p0.i64(ptr noundef nonnull align 4 dereferenceable(20) %.0.i.i4.i, ptr noundef nonnull align 4 dereferenceable(20) %.0.i.i.i, i64 20, i1 false)
  br label %_ZN26hb_paint_extents_context_t5paintEv.exit

46:                                               ; preds = %43
  %47 = getelementptr inbounds i8, ptr %.0.i.i4.i, i64 4
  %48 = getelementptr inbounds i8, ptr %.0.i.i.i, i64 4
  %49 = load float, ptr %47, align 4
  %50 = load float, ptr %48, align 4
  %51 = fcmp ole float %49, %50
  %52 = select i1 %51, float %49, float %50
  store float %52, ptr %47, align 4
  %53 = getelementptr inbounds i8, ptr %.0.i.i4.i, i64 8
  %54 = getelementptr inbounds i8, ptr %.0.i.i.i, i64 8
  %55 = load float, ptr %53, align 4
  %56 = load float, ptr %54, align 4
  %57 = fcmp ole float %55, %56
  %58 = select i1 %57, float %55, float %56
  store float %58, ptr %53, align 4
  %59 = getelementptr inbounds i8, ptr %.0.i.i4.i, i64 12
  %60 = getelementptr inbounds i8, ptr %.0.i.i.i, i64 12
  %61 = load float, ptr %59, align 4
  %62 = load float, ptr %60, align 4
  %63 = fcmp oge float %61, %62
  %64 = select i1 %63, float %61, float %62
  store float %64, ptr %59, align 4
  %65 = getelementptr inbounds i8, ptr %.0.i.i4.i, i64 16
  %66 = getelementptr inbounds i8, ptr %.0.i.i.i, i64 16
  %67 = load float, ptr %65, align 4
  %68 = load float, ptr %66, align 4
  %69 = fcmp oge float %67, %68
  %70 = select i1 %69, float %67, float %68
  store float %70, ptr %65, align 4
  br label %_ZN26hb_paint_extents_context_t5paintEv.exit

_ZN26hb_paint_extents_context_t5paintEv.exit:     ; preds = %_ZN11hb_vector_tI11hb_bounds_tLb0EE4tailEv.exit5.i, %42, %43, %45, %46
  %71 = load i32, ptr %23, align 4, !noalias !14
  %.not.i.i = icmp eq i32 %71, 0
  br i1 %.not.i.i, label %_ZN26hb_paint_extents_context_t8pop_clipEv.exit, label %72

72:                                               ; preds = %_ZN26hb_paint_extents_context_t5paintEv.exit
  %73 = add i32 %71, -1
  store i32 %73, ptr %23, align 4, !noalias !14
  br label %_ZN26hb_paint_extents_context_t8pop_clipEv.exit

_ZN26hb_paint_extents_context_t8pop_clipEv.exit:  ; preds = %_ZN26hb_paint_extents_context_t5paintEv.exit, %72
  ret i32 1
}